target datalayout = "e-m:e-p270:32:32-p271:32:32-p272:64:64-i64:64-i128:128-f80:128-n8:16:32:64-S128"
target triple = "x86_64-pc-linux-gnu"

%"class.icu_77::CalendarCache" = type { ptr, ptr }

@_ZTVN6icu_7713CalendarCacheE = unnamed_addr constant { [4 x ptr] } { [4 x ptr] [ptr null, ptr @_ZTIN6icu_7713CalendarCacheE, ptr @_ZN6icu_7713CalendarCacheD1Ev, ptr @_ZN6icu_7713CalendarCacheD0Ev] }, align 8

; Function Attrs: mustprogress nounwind uwtable
define void @_ZN6icu_7713CalendarCacheD2Ev(ptr noundef nonnull align 8 dereferenceable(16) %0) unnamed_addr #2 align 2 personality ptr @__gxx_personality_v0 {
  %2 = alloca ptr, align 8
  store ptr %0, ptr %2, align 8, !tbaa !52
  %3 = load ptr, ptr %2, align 8
  store ptr getelementptr inbounds inrange(-16, 16) ({ [4 x ptr] }, ptr @_ZTVN6icu_7713CalendarCacheE, i32 0, i32 0, i32 2), ptr %3, align 8, !tbaa !33
  %4 = getelementptr inbounds nuw %"class.icu_77::CalendarCache", ptr %3, i32 0, i32 1
  %5 = load ptr, ptr %4, align 8, !tbaa !54
  %6 = icmp ne ptr %5, null
  br i1 %6, label %7, label %11

7:                                                ; preds = %1
  %8 = getelementptr inbounds nuw %"class.icu_77::CalendarCache", ptr %3, i32 0, i32 1
  %9 = load ptr, ptr %8, align 8, !tbaa !54
  invoke void @uhash_close_77(ptr noundef %9)
          to label %10 unwind label %12

10:                                               ; preds = %7
  br label %11

11:                                               ; preds = %10, %1
  ret void

12:                                               ; preds = %7
  %13 = landingpad { ptr, i32 }
          catch ptr null
  %14 = extractvalue { ptr, i32 } %13, 0
  call void @__clang_call_terminate(ptr %14) #11
  unreachable
}